#include <math.h>
#include <stdio.h>
#include <stdlib.h>
#include <string.h>

main()
{  char s[1000];
   int m,i,j,k,len,x,y,n,h;
   gets(s);
   len=strlen(s);
   for(n=2;n<=len;n++)
  {
   for(i=0;i<=len-n;i++)
  
   for(k=i,j=i+n-1;s[k]==s[j];k++,j--)
   if(k>=j)
  {
   for(h=i;h<i+n;h++)
   printf("%c",s[h]);
   printf("\n");break;}

   
   
}

}