; ModuleID = '49/1340.c'
source_filename = "49/1340.c"
target datalayout = "e-m:e-p270:32:32-p271:32:32-p272:64:64-i64:64-f80:128-n8:16:32:64-S128"
target triple = "x86_64-pc-linux-gnu"

@.str = private unnamed_addr constant [3 x i8] c"%c\00", align 1
@.str.1 = private unnamed_addr constant [2 x i8] c"\0A\00", align 1

; Function Attrs: noinline nounwind uwtable
define dso_local i32 @main() #0 {
  %1 = alloca i32, align 4
  %2 = alloca [1000 x i8], align 16
  %3 = alloca i32, align 4
  %4 = alloca i32, align 4
  %5 = alloca i32, align 4
  %6 = alloca i32, align 4
  %7 = alloca i32, align 4
  %8 = alloca i32, align 4
  %9 = alloca i32, align 4
  %10 = alloca i32, align 4
  %11 = alloca i32, align 4
  store i32 0, i32* %1, align 4
  %12 = getelementptr inbounds [1000 x i8], [1000 x i8]* %2, i64 0, i64 0
  %13 = call i32 (i8*, ...) bitcast (i32 (...)* @gets to i32 (i8*, ...)*)(i8* %12)
  %14 = getelementptr inbounds [1000 x i8], [1000 x i8]* %2, i64 0, i64 0
  %15 = call i64 @strlen(i8* %14) #3
  %16 = trunc i64 %15 to i32
  store i32 %16, i32* %7, align 4
  store i32 2, i32* %10, align 4
  br label %17

17:                                               ; preds = %81, %0
  %18 = load i32, i32* %10, align 4
  %19 = load i32, i32* %7, align 4
  %20 = icmp sle i32 %18, %19
  br i1 %20, label %21, label %84

21:                                               ; preds = %17
  store i32 0, i32* %4, align 4
  br label %22

22:                                               ; preds = %77, %21
  %23 = load i32, i32* %4, align 4
  %24 = load i32, i32* %7, align 4
  %25 = load i32, i32* %10, align 4
  %26 = sub nsw i32 %24, %25
  %27 = icmp sle i32 %23, %26
  br i1 %27, label %28, label %80

28:                                               ; preds = %22
  %29 = load i32, i32* %4, align 4
  store i32 %29, i32* %6, align 4
  %30 = load i32, i32* %4, align 4
  %31 = load i32, i32* %10, align 4
  %32 = add nsw i32 %30, %31
  %33 = sub nsw i32 %32, 1
  store i32 %33, i32* %5, align 4
  br label %34

34:                                               ; preds = %71, %28
  %35 = load i32, i32* %6, align 4
  %36 = sext i32 %35 to i64
  %37 = getelementptr inbounds [1000 x i8], [1000 x i8]* %2, i64 0, i64 %36
  %38 = load i8, i8* %37, align 1
  %39 = sext i8 %38 to i32
  %40 = load i32, i32* %5, align 4
  %41 = sext i32 %40 to i64
  %42 = getelementptr inbounds [1000 x i8], [1000 x i8]* %2, i64 0, i64 %41
  %43 = load i8, i8* %42, align 1
  %44 = sext i8 %43 to i32
  %45 = icmp eq i32 %39, %44
  br i1 %45, label %46, label %76

46:                                               ; preds = %34
  %47 = load i32, i32* %6, align 4
  %48 = load i32, i32* %5, align 4
  %49 = icmp sge i32 %47, %48
  br i1 %49, label %50, label %70

50:                                               ; preds = %46
  %51 = load i32, i32* %4, align 4
  store i32 %51, i32* %11, align 4
  br label %52

52:                                               ; preds = %65, %50
  %53 = load i32, i32* %11, align 4
  %54 = load i32, i32* %4, align 4
  %55 = load i32, i32* %10, align 4
  %56 = add nsw i32 %54, %55
  %57 = icmp slt i32 %53, %56
  br i1 %57, label %58, label %68

58:                                               ; preds = %52
  %59 = load i32, i32* %11, align 4
  %60 = sext i32 %59 to i64
  %61 = getelementptr inbounds [1000 x i8], [1000 x i8]* %2, i64 0, i64 %60
  %62 = load i8, i8* %61, align 1
  %63 = sext i8 %62 to i32
  %64 = call i32 (i8*, ...) @printf(i8* getelementptr inbounds ([3 x i8], [3 x i8]* @.str, i64 0, i64 0), i32 %63)
  br label %65

65:                                               ; preds = %58
  %66 = load i32, i32* %11, align 4
  %67 = add nsw i32 %66, 1
  store i32 %67, i32* %11, align 4
  br label %52

68:                                               ; preds = %52
  %69 = call i32 (i8*, ...) @printf(i8* getelementptr inbounds ([2 x i8], [2 x i8]* @.str.1, i64 0, i64 0))
  br label %76

70:                                               ; preds = %46
  br label %71

71:                                               ; preds = %70
  %72 = load i32, i32* %6, align 4
  %73 = add nsw i32 %72, 1
  store i32 %73, i32* %6, align 4
  %74 = load i32, i32* %5, align 4
  %75 = add nsw i32 %74, -1
  store i32 %75, i32* %5, align 4
  br label %34

76:                                               ; preds = %68, %34
  br label %77

77:                                               ; preds = %76
  %78 = load i32, i32* %4, align 4
  %79 = add nsw i32 %78, 1
  store i32 %79, i32* %4, align 4
  br label %22

80:                                               ; preds = %22
  br label %81

81:                                               ; preds = %80
  %82 = load i32, i32* %10, align 4
  %83 = add nsw i32 %82, 1
  store i32 %83, i32* %10, align 4
  br label %17

84:                                               ; preds = %17
  %85 = load i32, i32* %1, align 4
  ret i32 %85
}

declare dso_local i32 @gets(...) #1

; Function Attrs: nounwind readonly
declare dso_local i64 @strlen(i8*) #2

declare dso_local i32 @printf(i8*, ...) #1


!llvm.module.flags = !{!0}
!llvm.ident = !{!1}

!0 = !{i32 1, !"wchar_size", i32 4}
!1 = !{!"clang version 10.0.0-4ubuntu1 "}
